
 Start  Stop   Length Name                   Class
 00000H 0FFFFH 10000H EPROMA                 
 10000H 10000H 00000H STACK                  STACK

  Address         Publics by Name

 0000:E000       AA_ADJUST_TO_E000
 0000:DA40       AA_FILL
 0000:C1F4       AA_INT05
 0000:B98E       AA_INT10
 0000:A8D0       AA_INT13
 0000:B892       AA_INT14
 0000:C298       AA_INT15
 0000:B01F       AA_INT16
 0000:B7F6       AA_INT17
 0000:9DB8       AA_INT40
 0000:95E6       AA_MISCINTR
 0000:8000       AA_POD
 0000:9A6E       AA_ROUTINES
 0000:E000       AA_TOP8K
 0000:C746       ACONFIG
 0000:982C       ALARM
 0040:0019  Abs  ALT_BUFFER
 0000:9AC6       BEEP
 0000:E05B       BEGIN
 0000:990D       BOOT
 0000:E6F2       BOOT1
 0000:99AC       BOOT_MSG_1
 0000:963D       BREAK
 0040:0071  Abs  BREAK_KEY
 0000:9CC2       CCHECK
 0000:FA6E       CHAR_GEN_TABLE
 0000:9A6E       CHK_CLK
 0000:9B50       CHK_CMOS_GOOD
 0000:96B3       CLOCK
 0000:FE6E       CLOCK1
 0000:F84D       CONFIG
 0000:9888       CONFIG_1
 0000:E6F5       CONFIG_TABLE
 0000:9BEB       CONVERT
 0000:9D1A       CONVT_BIN_DEC
 0000:E000       COPYRIGHT
 0040:009E  Abs  COUNT_HIGH
 0040:009C  Abs  COUNT_LOW
 0040:0063  Abs  CRTC_BASE_ADR
 0040:0066  Abs  CRT_COLOR
 0040:0076  Abs  CTRL_BYTE
 0040:0062  Abs  CURRENT_PAGE
 0040:0060  Abs  CURSOR_MODE
 0040:0050  Abs  CURSOR_POSITION
 0040:008B  Abs  DATA_RATE
 0040:004C  Abs  DBFR_SIZE
 0040:004E  Abs  DBFR_START
 0000:9AC5       DELAY
 0000:A5AC       DETRM_DRV_TYPE
 0000:A870       DISK_PARM_TBL
 0040:0074  Abs  DISK_STAT_1
 0000:9AE5       DISPLAY
 B800:0000  Abs  DISP_BFR_B
 B800:0000  Abs  DISP_BFR_W
 0040:004A  Abs  DISP_COLS
 0040:0094  Abs  DRV_0_CYL
 0040:0090  Abs  DRV_0_MEDIA
 0040:0092  Abs  DRV_0_OP
 0040:0095  Abs  DRV_1_CYL
 0040:0091  Abs  DRV_1_MEDIA
 0040:0093  Abs  DRV_1_OP
 0040:0041  Abs  DSK_OPN_STATUS
 0000:0078  Abs  DSK_PARM_PTR
 0000:963E       DUMMY_MOUSE
 0040:0085  Abs  EGA_CHAR_SIZE
 0040:00A8  Abs  EGA_PARMS
 0040:0084  Abs  EGA_ROWS
 0000:9D0E       END_INTERRUPT
 0000:C726       END_INT_15
 0040:0010  Abs  EQUIP_FLAG
 0040:0098  Abs  EVENT_FLAG_ADDR
 0040:009A  Abs  EVENT_FLAG_SEG
 0040:00A0  Abs  EVENT_WAIT_FLAG
 0040:0042  Abs  FDC_RESULTS
 0000:9D7D       FIXED_WAIT
 0040:0017  Abs  FLAG
 0040:0018  Abs  FLAG_1
 0040:0097  Abs  FLAG_2
 0040:0096  Abs  FLAG_3
 0000:A2E7       FLOPPY_INTR
 0000:EF57       FLOPPY_INTR1
 0000:9DB8       FLOPPY_IO
 0000:EFC7       FLOPPY_PARMS
 0000:C554       GATE_A20
 0040:008F  Abs  HF_CNTRL
 0040:008D  Abs  HF_ERR_REG
 0040:008E  Abs  HF_INT_FLG
 0040:0075  Abs  HF_NUM
 0040:008C  Abs  HF_ST_REG
 0000:9658       INT71
 0040:006B  Abs  INTERRUPT_FLAG
 0000:C2BC       INTR_15
 0000:F859       INTR_15_1
 0000:0020  Abs  INT_PTR1
 0000:01C0  Abs  INT_PTR2
 0040:001C  Abs  IN_BUFFER
 0000:B01F       KEY
 0000:E82E       KEY1
 0000:B171       KEYBOARD
 0000:E987       KEYBOARD1
 0040:001E  Abs  KEY_BUFFER
 0040:0082  Abs  KEY_BUFFER_END
 0040:0080  Abs  KEY_BUFFER_START
 0000:E990       KEY_TABLE_1
 0000:E99D       KEY_TABLE_2
 0000:E9F6       KEY_TABLE_2_1
 0000:EA4F       KEY_TABLE_3
 0000:EAA8       KEY_TABLE_4
 0000:EB01       KEY_TABLE_5
 0000:EB5A       KEY_TABLE_6
 0000:EBB3       KEY_TABLE_7
 0000:9645       MATH
 0040:0013  Abs  MEMORY_SIZE
 0040:003F  Abs  MOTOR_ON
 0040:0040  Abs  MOTOR_TIMOUT
 0000:9AF8       MOVE
 0040:00A1  Abs  NET_DATA
 0000:E2C3       NMI_INT
 0000:9AC5       NOP_PROC
 0040:001A  Abs  OUT_BUFFER
 0040:0008  Abs  PARALLEL_TABLE
 0000:9892       PARITY_ERROR
 0000:0074  Abs  PARM_PTR
 0040:0077  Abs  PORT_OFF
 0000:B7F6       PRINT
 0000:EFD2       PRINT1
 0040:0100  Abs  PRINT_STAT
 0040:0078  Abs  PRINT_TIME
 0000:FFF0       PWR_ON_RESET
 0000:F841       RAM_SIZE
 0000:987E       RAM_SIZE_1
 0000:BCD1       RD_ATR_CHAR
 0000:BB21       RD_CURSOR_POSN
 0000:BEA6       RD_DOT
 0000:BB30       RD_LPEN_POSN
 0000:BF24       RD_VIDEO_STATE
 0000:9C24       READKEY
 0000:9B34       READ_CMOS
 0000:9CE5       READ_SWITCH
 0000:A1CE       RECAL_OPN
 0040:003E  Abs  RECAL_REQD
 0040:0072  Abs  RESET_KEY
 0000:9ABA       RESTORE_ALL
 0040:0067  Abs  ROM_ADDRESS
 0040:0069  Abs  ROM_SEGMENT
 0000:D006       RSETUP
 0000:9AA5       SAVE_ALL
 0000:C1F4       SCREEN_PRINT
 0000:BC7A       SCROLL_SCR_DWN
 0000:BBE0       SCROLL_SCR_UP
 0000:BBC1       SEL_DISP_PAGE
 0040:0000  Abs  SERIAL_BASE
 0000:B892       SERIAL_IO
 0000:E739       SERIAL_IO1
 0040:007C  Abs  SERIAL_TIME
 0000:BE59       SET_COLOR_PLT
 0000:BB0B       SET_CURSOR_POSN
 0000:BB00       SET_CURSOR_TYPE
 0000:9A9D       SET_DATA
 0000:BA0F       SET_VIDEO_MODE
 0000:9B59       SHUT
 0000:C51A       SHUTDOWN_9
 0000:92CF       SHUT_DOWN
 0000:C726       SIGNON
 0040:0012  Abs  SPECIAL
 0000:80CB       START
 0000:9BD8       START_CLOCK
 0000:C13B       STRING
 0000:80CB       TEST_1
 0000:9662       TIME
 0000:FEA5       TIME1
 0040:006C  Abs  TIMER_LOWER
 0040:006E  Abs  TIMER_UPPER
 0040:0070  Abs  TIMER_WRAP
 0000:9B8D       TVIDEO
 0000:95E6       UNEXPECTED_INTERRUPT
 0000:9B1E       UPDATE
 0000:007C  Abs  USER_CGEN_TABLE
 0000:B9E6       V0
 0000:B9DD       V2
 0000:FEF3       VECTOR_TABLE
 0040:0013  Abs  VFLAG
 0000:B98E       VIDEO
 0040:0049  Abs  VIDEO_MODE
 0040:0065  Abs  VIDEO_MODE_REG
 0000:F0A4       VIDEO_PARM_TBL
 0000:F065       VIDEO_START
 0040:0015  Abs  VIR_MEM_SIZE
 0000:9B0F       WAIT_UPI
 0000:0104  Abs  WD0_PARM_VEC
 0000:0118  Abs  WD1_PARM_VEC
 0040:0042  Abs  WD_CMD_FILE
 0000:E401       WD_CONFIG_TBL
 0000:AAEF       WD_DRV
 0000:EC59       WD_DRV1
 0000:AD93       WD_INTR
 0000:A8D0       WD_SETUP
 0000:9B42       WRITE_CMOS
 0000:BD84       WR_ATR_CHAR
 0000:BD80       WR_CHAR
 0000:BE82       WR_DOT
 0000:BEB1       WR_TELETYPE

  Address         Publics by Value

 0000:0020  Abs  INT_PTR1
 0000:0074  Abs  PARM_PTR
 0000:0078  Abs  DSK_PARM_PTR
 0000:007C  Abs  USER_CGEN_TABLE
 0000:0104  Abs  WD0_PARM_VEC
 0000:0118  Abs  WD1_PARM_VEC
 0000:01C0  Abs  INT_PTR2
 0040:0000  Abs  SERIAL_BASE
 0040:0008  Abs  PARALLEL_TABLE
 0040:0010  Abs  EQUIP_FLAG
 0040:0012  Abs  SPECIAL
 0040:0013  Abs  VFLAG
 0040:0013  Abs  MEMORY_SIZE
 0040:0015  Abs  VIR_MEM_SIZE
 0040:0017  Abs  FLAG
 0040:0018  Abs  FLAG_1
 0040:0019  Abs  ALT_BUFFER
 0040:001A  Abs  OUT_BUFFER
 0040:001C  Abs  IN_BUFFER
 0040:001E  Abs  KEY_BUFFER
 0040:003E  Abs  RECAL_REQD
 0040:003F  Abs  MOTOR_ON
 0040:0040  Abs  MOTOR_TIMOUT
 0040:0041  Abs  DSK_OPN_STATUS
 0040:0042  Abs  WD_CMD_FILE
 0040:0042  Abs  FDC_RESULTS
 0040:0049  Abs  VIDEO_MODE
 0040:004A  Abs  DISP_COLS
 0040:004C  Abs  DBFR_SIZE
 0040:004E  Abs  DBFR_START
 0040:0050  Abs  CURSOR_POSITION
 0040:0060  Abs  CURSOR_MODE
 0040:0062  Abs  CURRENT_PAGE
 0040:0063  Abs  CRTC_BASE_ADR
 0040:0065  Abs  VIDEO_MODE_REG
 0040:0066  Abs  CRT_COLOR
 0040:0067  Abs  ROM_ADDRESS
 0040:0069  Abs  ROM_SEGMENT
 0040:006B  Abs  INTERRUPT_FLAG
 0040:006C  Abs  TIMER_LOWER
 0040:006E  Abs  TIMER_UPPER
 0040:0070  Abs  TIMER_WRAP
 0040:0071  Abs  BREAK_KEY
 0040:0072  Abs  RESET_KEY
 0040:0074  Abs  DISK_STAT_1
 0040:0075  Abs  HF_NUM
 0040:0076  Abs  CTRL_BYTE
 0040:0077  Abs  PORT_OFF
 0040:0078  Abs  PRINT_TIME
 0040:007C  Abs  SERIAL_TIME
 0040:0080  Abs  KEY_BUFFER_START
 0040:0082  Abs  KEY_BUFFER_END
 0040:0084  Abs  EGA_ROWS
 0040:0085  Abs  EGA_CHAR_SIZE
 0040:008B  Abs  DATA_RATE
 0040:008C  Abs  HF_ST_REG
 0040:008D  Abs  HF_ERR_REG
 0040:008E  Abs  HF_INT_FLG
 0040:008F  Abs  HF_CNTRL
 0040:0090  Abs  DRV_0_MEDIA
 0040:0091  Abs  DRV_1_MEDIA
 0040:0092  Abs  DRV_0_OP
 0040:0093  Abs  DRV_1_OP
 0040:0094  Abs  DRV_0_CYL
 0040:0095  Abs  DRV_1_CYL
 0040:0096  Abs  FLAG_3
 0040:0097  Abs  FLAG_2
 0040:0098  Abs  EVENT_FLAG_ADDR
 0040:009A  Abs  EVENT_FLAG_SEG
 0040:009C  Abs  COUNT_LOW
 0040:009E  Abs  COUNT_HIGH
 0040:00A0  Abs  EVENT_WAIT_FLAG
 0040:00A1  Abs  NET_DATA
 0040:00A8  Abs  EGA_PARMS
 0040:0100  Abs  PRINT_STAT
 0000:8000       AA_POD
 0000:80CB       START
 0000:80CB       TEST_1
 0000:92CF       SHUT_DOWN
 0000:95E6       AA_MISCINTR
 0000:95E6       UNEXPECTED_INTERRUPT
 0000:963D       BREAK
 0000:963E       DUMMY_MOUSE
 0000:9645       MATH
 0000:9658       INT71
 0000:9662       TIME
 0000:96B3       CLOCK
 0000:982C       ALARM
 0000:987E       RAM_SIZE_1
 0000:9888       CONFIG_1
 0000:9892       PARITY_ERROR
 0000:990D       BOOT
 0000:99AC       BOOT_MSG_1
 0000:9A6E       CHK_CLK
 0000:9A6E       AA_ROUTINES
 0000:9A9D       SET_DATA
 0000:9AA5       SAVE_ALL
 0000:9ABA       RESTORE_ALL
 0000:9AC5       NOP_PROC
 0000:9AC5       DELAY
 0000:9AC6       BEEP
 0000:9AE5       DISPLAY
 0000:9AF8       MOVE
 0000:9B0F       WAIT_UPI
 0000:9B1E       UPDATE
 0000:9B34       READ_CMOS
 0000:9B42       WRITE_CMOS
 0000:9B50       CHK_CMOS_GOOD
 0000:9B59       SHUT
 0000:9B8D       TVIDEO
 0000:9BD8       START_CLOCK
 0000:9BEB       CONVERT
 0000:9C24       READKEY
 0000:9CC2       CCHECK
 0000:9CE5       READ_SWITCH
 0000:9D0E       END_INTERRUPT
 0000:9D1A       CONVT_BIN_DEC
 0000:9D7D       FIXED_WAIT
 0000:9DB8       FLOPPY_IO
 0000:9DB8       AA_INT40
 0000:A1CE       RECAL_OPN
 0000:A2E7       FLOPPY_INTR
 0000:A5AC       DETRM_DRV_TYPE
 0000:A870       DISK_PARM_TBL
 0000:A8D0       WD_SETUP
 0000:A8D0       AA_INT13
 0000:AAEF       WD_DRV
 0000:AD93       WD_INTR
 0000:B01F       AA_INT16
 0000:B01F       KEY
 0000:B171       KEYBOARD
 0000:B7F6       AA_INT17
 0000:B7F6       PRINT
 0000:B892       AA_INT14
 0000:B892       SERIAL_IO
 0000:B98E       VIDEO
 0000:B98E       AA_INT10
 0000:B9DD       V2
 0000:B9E6       V0
 0000:BA0F       SET_VIDEO_MODE
 0000:BB00       SET_CURSOR_TYPE
 0000:BB0B       SET_CURSOR_POSN
 0000:BB21       RD_CURSOR_POSN
 0000:BB30       RD_LPEN_POSN
 0000:BBC1       SEL_DISP_PAGE
 0000:BBE0       SCROLL_SCR_UP
 0000:BC7A       SCROLL_SCR_DWN
 0000:BCD1       RD_ATR_CHAR
 0000:BD80       WR_CHAR
 0000:BD84       WR_ATR_CHAR
 0000:BE59       SET_COLOR_PLT
 0000:BE82       WR_DOT
 0000:BEA6       RD_DOT
 0000:BEB1       WR_TELETYPE
 0000:BF24       RD_VIDEO_STATE
 0000:C13B       STRING
 0000:C1F4       SCREEN_PRINT
 0000:C1F4       AA_INT05
 0000:C298       AA_INT15
 0000:C2BC       INTR_15
 0000:C51A       SHUTDOWN_9
 0000:C554       GATE_A20
 0000:C726       END_INT_15
 0000:C726       SIGNON
 0000:C746       ACONFIG
 0000:D006       RSETUP
 0000:DA40       AA_FILL
 0000:E000       AA_TOP8K
 0000:E000       AA_ADJUST_TO_E000
 0000:E000       COPYRIGHT
 0000:E05B       BEGIN
 0000:E2C3       NMI_INT
 0000:E401       WD_CONFIG_TBL
 0000:E6F2       BOOT1
 0000:E6F5       CONFIG_TABLE
 0000:E739       SERIAL_IO1
 0000:E82E       KEY1
 0000:E987       KEYBOARD1
 0000:E990       KEY_TABLE_1
 0000:E99D       KEY_TABLE_2
 0000:E9F6       KEY_TABLE_2_1
 0000:EA4F       KEY_TABLE_3
 0000:EAA8       KEY_TABLE_4
 0000:EB01       KEY_TABLE_5
 0000:EB5A       KEY_TABLE_6
 0000:EBB3       KEY_TABLE_7
 0000:EC59       WD_DRV1
 0000:EF57       FLOPPY_INTR1
 0000:EFC7       FLOPPY_PARMS
 0000:EFD2       PRINT1
 0000:F065       VIDEO_START
 0000:F0A4       VIDEO_PARM_TBL
 0000:F841       RAM_SIZE
 0000:F84D       CONFIG
 0000:F859       INTR_15_1
 0000:FA6E       CHAR_GEN_TABLE
 0000:FE6E       CLOCK1
 0000:FEA5       TIME1
 0000:FEF3       VECTOR_TABLE
 0000:FFF0       PWR_ON_RESET
 B800:0000  Abs  DISP_BFR_B
 B800:0000  Abs  DISP_BFR_W
