
 MOUSE

 Start     Length     Name                   Class
 0001:0000 00490H     _TEXT                  CODE
 0002:0000 000B0H     _DATA                  DATA

 Origin   Group
 0002:0   DGROUP

 Address   Export                  Alias

 0001:0444 Disable                 Disable
 0001:0410 Enable                  Enable
 0001:03C9 Inquire                 Inquire
 0001:03FB MouseGetIntVect         MouseGetIntVect
 0001:0468 WEP                     WEP

  Address         Publics by Name

 0000:0000  Imp  AllocDStoCSAlias     (KERNEL.171)
 0000:0000  Imp  AllocSelector        (KERNEL.175)
 0000:0000  Imp  CreateSystemTimer    (SYSTEM.2)
 0002:0038       CSEG_device_int
 0002:007A       device_int
 0002:003A       device_int_sel
 0001:0444       Disable
 0002:0036       DSEG_device_int
 0001:0410       Enable
 0002:0010       event_proc
 0000:0000  Imp  FreeSelector         (KERNEL.176)
 0000:0000  Imp  GetWinFlags          (KERNEL.132)
 0001:046E       Initialize
 0001:03C9       Inquire
 0002:0034       interrupt_rate
 0002:0045       InTimer
 0000:0000  Imp  KillSystemTimer      (SYSTEM.3)
 0002:0040       mode
 0001:03FB       MouseGetIntVect
 0002:0043       mouse_flags
 0002:0044       mouse_type
 0002:001C       ms_rq_np
 0002:0020       ms_rq_rp
 0002:003E       ms_rq_sel
 0002:0014       ms_sd_np
 0002:0018       ms_sd_rp
 0002:003C       ms_sd_sel
 0002:0046       old_count
 0002:0047       open_flags
 0000:0000  Imp  SetSelectorBase      (KERNEL.187)
 0000:0000  Imp  SetSelectorLimit     (KERNEL.189)
 0002:0032       timer_handle
 0002:0042       vector
 0001:0468       WEP
 0000:0000  Imp  __0000h              (KERNEL.183)
 0000:0000  Imp  __A000h              (KERNEL.174)
 0000:0000  Imp  __B000h              (KERNEL.181)
 0000:0000  Imp  __B800h              (KERNEL.182)
 0000:0000  Imp  __C000h              (KERNEL.195)
 0000:0000  Imp  __D000h              (KERNEL.179)
 0000:0000  Imp  __E000h              (KERNEL.190)
 0000:0000  Imp  __F000h              (KERNEL.194)
 0000:0000  Imp  __ROMBIOS            (KERNEL.173)

  Address         Publics by Value

 0000:0000  Imp  __ROMBIOS            (KERNEL.173)
 0000:0000  Imp  __B000h              (KERNEL.181)
 0000:0000  Imp  GetWinFlags          (KERNEL.132)
 0000:0000  Imp  AllocDStoCSAlias     (KERNEL.171)
 0000:0000  Imp  SetSelectorBase      (KERNEL.187)
 0000:0000  Imp  __0000h              (KERNEL.183)
 0000:0000  Imp  FreeSelector         (KERNEL.176)
 0000:0000  Imp  __F000h              (KERNEL.194)
 0000:0000  Imp  AllocSelector        (KERNEL.175)
 0000:0000  Imp  __E000h              (KERNEL.190)
 0000:0000  Imp  CreateSystemTimer    (SYSTEM.2)
 0000:0000  Imp  __C000h              (KERNEL.195)
 0000:0000  Imp  __A000h              (KERNEL.174)
 0000:0000  Imp  __B800h              (KERNEL.182)
 0000:0000  Imp  __D000h              (KERNEL.179)
 0000:0000  Imp  SetSelectorLimit     (KERNEL.189)
 0000:0000  Imp  KillSystemTimer      (SYSTEM.3)
 0001:03C9       Inquire
 0001:03FB       MouseGetIntVect
 0001:0410       Enable
 0001:0444       Disable
 0001:0468       WEP
 0001:046E       Initialize
 0002:0010       event_proc
 0002:0014       ms_sd_np
 0002:0018       ms_sd_rp
 0002:001C       ms_rq_np
 0002:0020       ms_rq_rp
 0002:0032       timer_handle
 0002:0034       interrupt_rate
 0002:0036       DSEG_device_int
 0002:0038       CSEG_device_int
 0002:003A       device_int_sel
 0002:003C       ms_sd_sel
 0002:003E       ms_rq_sel
 0002:0040       mode
 0002:0042       vector
 0002:0043       mouse_flags
 0002:0044       mouse_type
 0002:0045       InTimer
 0002:0046       old_count
 0002:0047       open_flags
 0002:007A       device_int

Program entry point at 0001:046E
