LINK : warning L4021: no stack segment

 Start  Stop   Length Name                   Class
 00000H 028FBH 028FCH CSEG                   CODE
 02900H 02B25H 00226H $$TYPES                DEBTYP
 02B30H 02F56H 00427H $$TYPES                DEBTYP
 02F60H 03386H 00427H $$TYPES                DEBTYP
 03390H 037B6H 00427H $$TYPES                DEBTYP
 037C0H 039E5H 00226H $$TYPES                DEBTYP
 039F0H 03C15H 00226H $$TYPES                DEBTYP
 03C20H 03C2BH 0000CH $$TYPES                DEBTYP
 03C30H 03C3BH 0000CH $$TYPES                DEBTYP
 03C40H 03F6CH 0032DH $$TYPES                DEBTYP
 03F70H 0429CH 0032DH $$TYPES                DEBTYP
 042A0H 044A3H 00204H $$TYPES                DEBTYP
 044B0H 045B5H 00106H $$TYPES                DEBTYP
 045C0H 045CBH 0000CH $$TYPES                DEBTYP
 045D0H 04661H 00092H $$TYPES                DEBTYP
 04670H 04A96H 00427H $$TYPES                DEBTYP
 04AA0H 04D46H 002A7H $$TYPES                DEBTYP
 04D50H 04DDDH 0008EH $$SYMBOLS              DEBSYM
 04DE0H 04F04H 00125H $$SYMBOLS              DEBSYM
 04F10H 050B6H 001A7H $$SYMBOLS              DEBSYM
 050C0H 0561FH 00560H $$SYMBOLS              DEBSYM
 05620H 05650H 00031H $$SYMBOLS              DEBSYM
 05660H 0573EH 000DFH $$SYMBOLS              DEBSYM
 05740H 05740H 00000H $$SYMBOLS              DEBSYM
 05740H 05740H 00000H $$SYMBOLS              DEBSYM
 05740H 057E3H 000A4H $$SYMBOLS              DEBSYM
 057F0H 05935H 00146H $$SYMBOLS              DEBSYM
 05940H 0594CH 0000DH $$SYMBOLS              DEBSYM
 05950H 059BDH 0006EH $$SYMBOLS              DEBSYM
 059C0H 059DFH 00020H $$SYMBOLS              DEBSYM
 059E0H 05A07H 00028H $$SYMBOLS              DEBSYM
 05A10H 05B8CH 0017DH $$SYMBOLS              DEBSYM
 05B90H 05B90H 00000H $$SYMBOLS              DEBSYM

  Address         Publics by Name

 0000:285E       AB_BILLMSG0
 0000:2870       AB_BILLMSG1
 0000:287A       AB_BILLMSG2
 0000:2882       AB_BILLMSG3
 0000:288B       AB_BILLMSG4
 0000:2893       AB_BILLMSG5
 0000:283C       AB_BILL_INT13
 0000:2840       AB_CYL
 0000:2854       AB_DATAOFF
 0000:2852       AB_DATASEG
 0000:285C       AB_FILE
 0000:28D1       AB_FILENAME
 0000:2856       AB_FILEOPEN
 0000:28B8       AB_FTEXITMSG
 0000:2842       AB_HEAD
 0000:2850       AB_JBUFFOFF
 0000:284E       AB_JBUFFSEG
 0000:284C       AB_JPARMOFF
 0000:284A       AB_JPARMSEG
 0000:2858       AB_NUMHEADS
 0000:28E8       AB_OKFLAG
 0000:289D       AB_OPENFAILMSG
 0000:2844       AB_SEC
 0000:2846       AB_SECS
 0000:2848       AB_SECSDONE
 0000:285A       AB_TRACKSECS
 0000:203C       ACTIVEFLAG
 0000:0502       ADDSERVICE
 0000:02D5       ALLOCMEM
 0000:26B3       ALLOCPARAM
 0000:2801       AMIGAADDMSG
 0000:27E4       AMIGACALLMSG
 0000:281D       AMIGADELETEMSG
 0000:22E3       AM_HD
 0000:2371       BASEMSG
 0000:1090       BILL13
 0000:1483       BILL19
 0000:2018       BIOS_INT10
 0000:201C       BIOS_INT13
 0000:2020       BIOS_INT16
 0000:2024       BIOS_INT1C
 0000:20DA       BOOTBLOCK
 0000:23FC       BUFFERMSG
 0000:049B       CALLAMIGA
 0000:26FB       CALLAMIGASERVICE
 0000:0769       CALLSERVICE
 0000:2014       CHAIN_VEC
 0000:0BF0       CHANGE_INT
 0000:272D       CHANNELMSG
 0000:04B4       CHECKAMIGA
 0000:22DF       CURDRIVE
 0000:22E0       CURTABLE
 0000:28FB       DATAEND
 0000:2000       DATATAG
 0000:084A       DELETESERVICE
 0000:261E       DISKMSG1
 0000:01B2       DOSINT
 0000:241F       DOSMSGA
 0000:2433       DOSMSGN
 0000:01B1       DOS_IDLE
 0000:2028       DOS_INT28
 0000:0BBE       DUMMY
 0000:203F       DUMMYFLAG
 0000:1500       DUMMY_NULL
 0000:2503       ESDI_MES
 0000:24EA       EXEINTMES
 0000:277A       EXITSDMSG
 0000:203D       FAKEDOSFLAG
 0000:24CD       FOUNDINTMES
 0000:03A6       FREEMEM
 0000:02B3       GETBASE
 0000:0636       GETSERVICE
 0000:02B0       GETSERVICE1
 0000:2713       GOTSERVICEINT
 0000:273B       HANDLERMSG
 0000:204E       HANDLERPTR
 0000:0C10       HDPART
 0000:2298       HDPART1
 0000:22A8       HDPART2
 0000:22B8       HDPART3
 0000:22C8       HDPART4
 0000:2446       HWMSGP
 0000:245D       HWMSGPC
 0000:246E       HWMSGR
 0000:2414       IDLEMSG
 0000:26C8       INITPOINTERS
 0000:04D0       INITSERVICEPTR
 0000:2337       INMSG
 0000:0EE0       INT86
 0000:2537       INTCTRLMES
 0000:23CC       INTSMSG
 0000:24AB       INTTBLMES
 0000:2038       INT_ENABLE
 0000:2034       INT_REQ
 0000:0150       JANINT
 0000:0BDD       JANINTDIS
 0000:0BD0       JANINTEN
 0000:0AC2       JANUSINTHANDLER
 0000:202C       JANUS_BASE_SEG
 0000:2030       JANUS_BUFFER_SEG
 0000:0D91       JANUS_DISK_IO
 0000:0D50       JANUS_DSK_ABS
 0000:202E       JANUS_PARAM_SEG
 0000:2032       JANUS_PART_BASE
 0000:25F2       LOADERRMSG
 0000:2355       LOADMSG
 0000:268F       MAKESERVICE
 0000:070B       MAKESERVICEDATA
 0000:22DC       MAX_CYL
 0000:22DA       MAX_DRIVE
 0000:22DB       MAX_HEAD
 0000:22DE       MAX_SEC
 0000:2650       MEMCHUNK
 0000:0F60       MEMRW
 0000:1025       NEWLINE
 0000:274F       NEXTSLOTMSG
 0000:2389       NOBASEMSG
 0000:25AE       NODRIVEMSG
 0000:2559       NOHANMES
 0000:2586       NOINTMES
 0000:25C5       NOPARTMSG
 0000:23AD       NOSERVICEBASEMSG
 0000:101E       OUTCHR
 0000:1007       OUTHXB
 0000:1000       OUTHXW
 0000:1040       OUTINT
 0000:105C       OUTUNS
 0000:23E4       PARASMSG
 0000:204A       PARMPTR
 0000:22E2       PARTCOUNT
 0000:22D8       PARTMARKER
 0000:2072       PCINT_DONE
 0000:1032       PSTRNG
 0000:2485       REGMSG
 0000:07ED       RELEASESERVICE
 0000:27AC       REMOVEMSG
 0000:203E       SCROLLFLAG
 0000:09B0       SCROLL_INT
 0000:0B9E       SENDJANUSINT
 0000:26E8       SERVICEADDED
 0000:27D0       SERVICEDELETED
 0000:08F5       SERVICEDISPATCH
 0000:2669       SERVICESEARCH
 0000:2052       SERVSTATTAB
 0000:046A       SETPARAM
 0000:0495       SETSERVICE
 0000:2076       SPACE
 0000:2040       SSTACK
 0000:0498       STOPSERVICE
 0000:0BBF       TESTINT
 0000:2516       TESTINTMES
 0000:2048       TICKS
 0000:279A       UCOUNTMSG
 0000:0A49       UPDATEINT
 0000:2633       UPDATEMSG
 0000:2044       USTACK
 0000:04B4       WAITAMIGA
 0000:2645       WAITSTATUS

  Address         Publics by Value

 0000:0150       JANINT
 0000:01B1       DOS_IDLE
 0000:01B2       DOSINT
 0000:02B0       GETSERVICE1
 0000:02B3       GETBASE
 0000:02D5       ALLOCMEM
 0000:03A6       FREEMEM
 0000:046A       SETPARAM
 0000:0495       SETSERVICE
 0000:0498       STOPSERVICE
 0000:049B       CALLAMIGA
 0000:04B4       CHECKAMIGA
 0000:04B4       WAITAMIGA
 0000:04D0       INITSERVICEPTR
 0000:0502       ADDSERVICE
 0000:0636       GETSERVICE
 0000:070B       MAKESERVICEDATA
 0000:0769       CALLSERVICE
 0000:07ED       RELEASESERVICE
 0000:084A       DELETESERVICE
 0000:08F5       SERVICEDISPATCH
 0000:09B0       SCROLL_INT
 0000:0A49       UPDATEINT
 0000:0AC2       JANUSINTHANDLER
 0000:0B9E       SENDJANUSINT
 0000:0BBE       DUMMY
 0000:0BBF       TESTINT
 0000:0BD0       JANINTEN
 0000:0BDD       JANINTDIS
 0000:0BF0       CHANGE_INT
 0000:0C10       HDPART
 0000:0D50       JANUS_DSK_ABS
 0000:0D91       JANUS_DISK_IO
 0000:0EE0       INT86
 0000:0F60       MEMRW
 0000:1000       OUTHXW
 0000:1007       OUTHXB
 0000:101E       OUTCHR
 0000:1025       NEWLINE
 0000:1032       PSTRNG
 0000:1040       OUTINT
 0000:105C       OUTUNS
 0000:1090       BILL13
 0000:1483       BILL19
 0000:1500       DUMMY_NULL
 0000:2000       DATATAG
 0000:2014       CHAIN_VEC
 0000:2018       BIOS_INT10
 0000:201C       BIOS_INT13
 0000:2020       BIOS_INT16
 0000:2024       BIOS_INT1C
 0000:2028       DOS_INT28
 0000:202C       JANUS_BASE_SEG
 0000:202E       JANUS_PARAM_SEG
 0000:2030       JANUS_BUFFER_SEG
 0000:2032       JANUS_PART_BASE
 0000:2034       INT_REQ
 0000:2038       INT_ENABLE
 0000:203C       ACTIVEFLAG
 0000:203D       FAKEDOSFLAG
 0000:203E       SCROLLFLAG
 0000:203F       DUMMYFLAG
 0000:2040       SSTACK
 0000:2044       USTACK
 0000:2048       TICKS
 0000:204A       PARMPTR
 0000:204E       HANDLERPTR
 0000:2052       SERVSTATTAB
 0000:2072       PCINT_DONE
 0000:2076       SPACE
 0000:20DA       BOOTBLOCK
 0000:2298       HDPART1
 0000:22A8       HDPART2
 0000:22B8       HDPART3
 0000:22C8       HDPART4
 0000:22D8       PARTMARKER
 0000:22DA       MAX_DRIVE
 0000:22DB       MAX_HEAD
 0000:22DC       MAX_CYL
 0000:22DE       MAX_SEC
 0000:22DF       CURDRIVE
 0000:22E0       CURTABLE
 0000:22E2       PARTCOUNT
 0000:22E3       AM_HD
 0000:2337       INMSG
 0000:2355       LOADMSG
 0000:2371       BASEMSG
 0000:2389       NOBASEMSG
 0000:23AD       NOSERVICEBASEMSG
 0000:23CC       INTSMSG
 0000:23E4       PARASMSG
 0000:23FC       BUFFERMSG
 0000:2414       IDLEMSG
 0000:241F       DOSMSGA
 0000:2433       DOSMSGN
 0000:2446       HWMSGP
 0000:245D       HWMSGPC
 0000:246E       HWMSGR
 0000:2485       REGMSG
 0000:24AB       INTTBLMES
 0000:24CD       FOUNDINTMES
 0000:24EA       EXEINTMES
 0000:2503       ESDI_MES
 0000:2516       TESTINTMES
 0000:2537       INTCTRLMES
 0000:2559       NOHANMES
 0000:2586       NOINTMES
 0000:25AE       NODRIVEMSG
 0000:25C5       NOPARTMSG
 0000:25F2       LOADERRMSG
 0000:261E       DISKMSG1
 0000:2633       UPDATEMSG
 0000:2645       WAITSTATUS
 0000:2650       MEMCHUNK
 0000:2669       SERVICESEARCH
 0000:268F       MAKESERVICE
 0000:26B3       ALLOCPARAM
 0000:26C8       INITPOINTERS
 0000:26E8       SERVICEADDED
 0000:26FB       CALLAMIGASERVICE
 0000:2713       GOTSERVICEINT
 0000:272D       CHANNELMSG
 0000:273B       HANDLERMSG
 0000:274F       NEXTSLOTMSG
 0000:277A       EXITSDMSG
 0000:279A       UCOUNTMSG
 0000:27AC       REMOVEMSG
 0000:27D0       SERVICEDELETED
 0000:27E4       AMIGACALLMSG
 0000:2801       AMIGAADDMSG
 0000:281D       AMIGADELETEMSG
 0000:283C       AB_BILL_INT13
 0000:2840       AB_CYL
 0000:2842       AB_HEAD
 0000:2844       AB_SEC
 0000:2846       AB_SECS
 0000:2848       AB_SECSDONE
 0000:284A       AB_JPARMSEG
 0000:284C       AB_JPARMOFF
 0000:284E       AB_JBUFFSEG
 0000:2850       AB_JBUFFOFF
 0000:2852       AB_DATASEG
 0000:2854       AB_DATAOFF
 0000:2856       AB_FILEOPEN
 0000:2858       AB_NUMHEADS
 0000:285A       AB_TRACKSECS
 0000:285C       AB_FILE
 0000:285E       AB_BILLMSG0
 0000:2870       AB_BILLMSG1
 0000:287A       AB_BILLMSG2
 0000:2882       AB_BILLMSG3
 0000:288B       AB_BILLMSG4
 0000:2893       AB_BILLMSG5
 0000:289D       AB_OPENFAILMSG
 0000:28B8       AB_FTEXITMSG
 0000:28D1       AB_FILENAME
 0000:28E8       AB_OKFLAG
 0000:28FB       DATAEND

Program entry point at 0000:0000
