LINK : warning L4021: no stack segment

 Start  Stop   Length Name                   Class
 00000H 07FFFH 08000H EPROMA                 

  Address         Publics by Name

 0000:20C9       AA_INT40
 0000:1A39       ALARM
 0040:0019  Abs  ALT_BUFFER
 0000:1D6D       BEEP
 0000:605B       BEGIN
 0000:1B66       BOOT
 0000:66F2       BOOT1
 0000:1C1C       BOOT_MSG_1
 0000:1855       BREAK
 0040:0071  Abs  BREAK_KEY
 0000:1F61       CCHECK
 0000:7A6E       CHAR_GEN_TABLE
 0000:1D15       CHK_CLK
 0000:1DF7       CHK_CMOS_GOOD
 0000:18C0       CLOCK
 0000:7E6E       CLOCK1
 0000:784D       CONFIG
 0000:1A91       CONFIG_1
 0000:4A3E       CONFIG_SETUP
 0000:66F5       CONFIG_TABLE
 0000:1E8A       CONVERT
 0000:1FB9       CONVT_BIN_DEC
 0000:6000       COPYRIGHT
 0040:009E  Abs  COUNT_HIGH
 0040:009C  Abs  COUNT_LOW
 0040:0063  Abs  CRTC_BASE_ADR
 0040:0066  Abs  CRT_COLOR
 0040:0076  Abs  CTRL_BYTE
 2000:0002  Abs  CURRENT_FIELD
 0040:0062  Abs  CURRENT_PAGE
 0040:0060  Abs  CURSOR_MODE
 0040:0050  Abs  CURSOR_POSITION
 0040:008B  Abs  DATA_RATE
 0040:004C  Abs  DBFR_SIZE
 0040:004E  Abs  DBFR_START
 0000:1D6C       DELAY
 0000:2870       DETRM_DRV_TYPE
 0000:2B2A       DISK_PARM_TBL
 0040:0074  Abs  DISK_STAT_1
 0000:1D8C       DISPLAY
 B800:0000  Abs  DISP_BFR_B
 B800:0000  Abs  DISP_BFR_W
 0040:004A  Abs  DISP_COLS
 0040:0094  Abs  DRV_0_CYL
 0040:0090  Abs  DRV_0_MEDIA
 0040:0092  Abs  DRV_0_OP
 0040:0095  Abs  DRV_1_CYL
 0040:0091  Abs  DRV_1_MEDIA
 0040:0093  Abs  DRV_1_OP
 0040:0041  Abs  DSK_OPN_STATUS
 0000:0078  Abs  DSK_PARM_PTR
 0000:1FAD       END_INTERRUPT
 0000:4740       END_OF_INT15
 0000:1805       END_POD
 0000:533C       END_SETUP
 2000:0018  Abs  EQUIP
 0040:0010  Abs  EQUIP_FLAG
 0040:0098  Abs  EVENT_FLAG_ADDR
 0040:009A  Abs  EVENT_FLAG_SEG
 0040:00A0  Abs  EVENT_WAIT_FLAG
 0040:0042  Abs  FDC_RESULTS
 0000:201C       FIXED_WAIT
 0040:0017  Abs  FLAG_1
 0040:0018  Abs  FLAG_2
 0040:0097  Abs  FLAG_3
 0040:0096  Abs  FLAG_4
 2000:0014  Abs  FLOPPY
 0000:25BB       FLOPPY_INTR
 0000:6F57       FLOPPY_INTR1
 0000:20C9       FLOPPY_IO
 0000:6FC7       FLOPPY_PARMS
 0000:4544       GATE_A20
 0000:2D1E       GTA_ERR
 0040:008F  Abs  HF_CNTRL
 0040:008D  Abs  HF_ERR_REG
 0040:008E  Abs  HF_INT_FLG
 0040:0075  Abs  HF_NUM
 0040:008C  Abs  HF_ST_REG
 0000:51A0       INPUT_COPROC
 0000:1865       INT71
 0040:006B  Abs  INTERRUPT_FLAG
 0000:42B8       INTR_15
 0000:7859       INTR_15_1
 0000:0020  Abs  INT_PTR1
 0000:01C0  Abs  INT_PTR2
 2000:0004  Abs  IN_BUFF
 0040:001C  Abs  IN_BUFFER
 2000:0003  Abs  IN_BUFF_PTR
 0000:328D       KEY
 0000:682E       KEY1
 0000:3319       KEYBOARD
 0000:6987       KEYBOARD1
 0040:001E  Abs  KEY_BUFFER
 0040:0082  Abs  KEY_BUFFER_END
 0040:0080  Abs  KEY_BUFFER_START
 0000:6990       KEY_TABLE_1
 0000:699D       KEY_TABLE_2
 0000:69F6       KEY_TABLE_3
 0000:6A4F       KEY_TABLE_4
 0000:6AA8       KEY_TABLE_5
 0000:6B01       KEY_TABLE_6
 0000:6B5A       KEY_TABLE_7
 0000:1856       MATH
 0040:0013  Abs  MEMORY_SIZE
 0040:003F  Abs  MOTOR_ON
 0040:0040  Abs  MOTOR_TIMOUT
 0000:1D9F       MOVE
 0000:62C3       NMI_INT
 0000:1D6C       NOP_PROC
 0000:4BB5       OTHER_KEY
 0040:001A  Abs  OUT_BUFFER
 0040:0008  Abs  PARALLEL_TABLE
 0000:1A9B       PARITY_ERROR
 0000:0074  Abs  PARM_PTR
 0040:0077  Abs  PORT_OFF
 0000:373E       PRINT
 0000:6FD2       PRINT1
 0040:0100  Abs  PRINT_STAT
 0040:0078  Abs  PRINT_TIME
 0000:7FF0       PWR_ON_RESET
 0000:7841       RAM_SIZE
 0000:1A87       RAM_SIZE_1
 0000:3BE3       RD_ATR_CHAR
 0000:3A35       RD_CURSOR_POSN
 0000:3D9D       RD_DOT
 0000:3A44       RD_LPEN_POSN
 0000:3E1B       RD_VIDEO_STATE
 0000:1EC3       READKEY
 0000:1DDB       READ_CMOS
 0000:1F84       READ_SWITCH
 0000:24B1       RECAL_OPN
 0040:003E  Abs  RECAL_REQD
 0040:0072  Abs  RESET_KEY
 0000:1D61       RESTORE_ALL
 0040:0067  Abs  ROM_ADDRESS
 0040:0069  Abs  ROM_SEGMENT
 0000:1D4C       SAVE_ALL
 0000:4138       SCREEN_PRINT
 0000:3B8D       SCROLL_SCR_DWN
 0000:3AF4       SCROLL_SCR_UP
 0000:3AD5       SEL_DISP_PAGE
 0040:0000  Abs  SERIAL_BASE
 0000:37CD       SERIAL_IO
 0000:6739       SERIAL_IO1
 0040:007C  Abs  SERIAL_TIME
 0000:3D50       SET_COLOR_PLT
 0000:3A1F       SET_CURSOR_POSN
 0000:3A14       SET_CURSOR_TYPE
 0000:1D44       SET_DATA
 0000:3935       SET_VIDEO_MODE
 0000:1E00       SHUT
 0000:450A       SHUTDOWN_9
 0000:11E4       SHUT_DOWN
 0000:605E       SIGN_ON
 0040:0012  Abs  SPECIAL
 0000:00A6       START
 0000:1E77       START_CLOCK
 0000:3FEB       STRING
 0000:00A6       TEST_1
 0000:186F       TIME
 0000:7EA5       TIME1
 0040:006C  Abs  TIMER_LOWER
 0040:006E  Abs  TIMER_UPPER
 0040:0070  Abs  TIMER_WRAP
 0000:1E30       TVIDEO
 0000:1805       UNEXPECTED_INTERRUPT
 0000:1DC5       UPDATE
 0000:007C  Abs  USER_CGEN_TABLE
 0000:40A4       V0
 0000:392C       V2
 0000:603D       VER_MSG
 0040:0013  Abs  VFLAG
 0000:38DD       VIDEO
 0040:0049  Abs  VIDEO_MODE
 0040:0065  Abs  VIDEO_MODE_REG
 0000:70A4       VIDEO_PARM_TBL
 0000:7065       VIDEO_START
 0040:0015  Abs  VIR_MEM_SIZE
 0000:1DB6       WAIT_UPI
 0000:0104  Abs  WD0_PARM_VEC
 0000:0118  Abs  WD1_PARM_VEC
 0040:0042  Abs  WD_CMD_FILE
 0000:6401       WD_CONFIG_TBL
 0000:2D21       WD_DRV
 0000:6C59       WD_DRV1
 0000:2FC4       WD_INTR
 0000:2B8A       WD_SETUP
 0000:1DE9       WRITE_CMOS
 0000:3C91       WR_ATR_CHAR
 0000:3C8D       WR_CHAR
 0000:3D79       WR_DOT
 0000:3DA8       WR_TELETYPE

  Address         Publics by Value

 0000:0020  Abs  INT_PTR1
 0000:0074  Abs  PARM_PTR
 0000:0078  Abs  DSK_PARM_PTR
 0000:007C  Abs  USER_CGEN_TABLE
 0000:00A6       TEST_1
 0000:00A6       START
 0000:0104  Abs  WD0_PARM_VEC
 0000:0118  Abs  WD1_PARM_VEC
 0000:01C0  Abs  INT_PTR2
 0040:0000  Abs  SERIAL_BASE
 0040:0008  Abs  PARALLEL_TABLE
 0040:0010  Abs  EQUIP_FLAG
 0040:0012  Abs  SPECIAL
 0040:0013  Abs  VFLAG
 0040:0013  Abs  MEMORY_SIZE
 0040:0015  Abs  VIR_MEM_SIZE
 0040:0017  Abs  FLAG_1
 0040:0018  Abs  FLAG_2
 0040:0019  Abs  ALT_BUFFER
 0040:001A  Abs  OUT_BUFFER
 0040:001C  Abs  IN_BUFFER
 0040:001E  Abs  KEY_BUFFER
 0040:003E  Abs  RECAL_REQD
 0040:003F  Abs  MOTOR_ON
 0040:0040  Abs  MOTOR_TIMOUT
 0040:0041  Abs  DSK_OPN_STATUS
 0040:0042  Abs  WD_CMD_FILE
 0040:0042  Abs  FDC_RESULTS
 0040:0049  Abs  VIDEO_MODE
 0040:004A  Abs  DISP_COLS
 0040:004C  Abs  DBFR_SIZE
 0040:004E  Abs  DBFR_START
 0040:0050  Abs  CURSOR_POSITION
 0040:0060  Abs  CURSOR_MODE
 0040:0062  Abs  CURRENT_PAGE
 0040:0063  Abs  CRTC_BASE_ADR
 0040:0065  Abs  VIDEO_MODE_REG
 0040:0066  Abs  CRT_COLOR
 0040:0067  Abs  ROM_ADDRESS
 0040:0069  Abs  ROM_SEGMENT
 0040:006B  Abs  INTERRUPT_FLAG
 0040:006C  Abs  TIMER_LOWER
 0040:006E  Abs  TIMER_UPPER
 0040:0070  Abs  TIMER_WRAP
 0040:0071  Abs  BREAK_KEY
 0040:0072  Abs  RESET_KEY
 0040:0074  Abs  DISK_STAT_1
 0040:0075  Abs  HF_NUM
 0040:0076  Abs  CTRL_BYTE
 0040:0077  Abs  PORT_OFF
 0040:0078  Abs  PRINT_TIME
 0040:007C  Abs  SERIAL_TIME
 0040:0080  Abs  KEY_BUFFER_START
 0040:0082  Abs  KEY_BUFFER_END
 0040:008B  Abs  DATA_RATE
 0040:008C  Abs  HF_ST_REG
 0040:008D  Abs  HF_ERR_REG
 0040:008E  Abs  HF_INT_FLG
 0040:008F  Abs  HF_CNTRL
 0040:0090  Abs  DRV_0_MEDIA
 0040:0091  Abs  DRV_1_MEDIA
 0040:0092  Abs  DRV_0_OP
 0040:0093  Abs  DRV_1_OP
 0040:0094  Abs  DRV_0_CYL
 0040:0095  Abs  DRV_1_CYL
 0040:0096  Abs  FLAG_4
 0040:0097  Abs  FLAG_3
 0040:0098  Abs  EVENT_FLAG_ADDR
 0040:009A  Abs  EVENT_FLAG_SEG
 0040:009C  Abs  COUNT_LOW
 0040:009E  Abs  COUNT_HIGH
 0040:00A0  Abs  EVENT_WAIT_FLAG
 0040:0100  Abs  PRINT_STAT
 0000:11E4       SHUT_DOWN
 0000:1805       END_POD
 0000:1805       UNEXPECTED_INTERRUPT
 0000:1855       BREAK
 0000:1856       MATH
 0000:1865       INT71
 0000:186F       TIME
 0000:18C0       CLOCK
 0000:1A39       ALARM
 0000:1A87       RAM_SIZE_1
 0000:1A91       CONFIG_1
 0000:1A9B       PARITY_ERROR
 0000:1B66       BOOT
 0000:1C1C       BOOT_MSG_1
 0000:1D15       CHK_CLK
 0000:1D44       SET_DATA
 0000:1D4C       SAVE_ALL
 0000:1D61       RESTORE_ALL
 0000:1D6C       NOP_PROC
 0000:1D6C       DELAY
 0000:1D6D       BEEP
 0000:1D8C       DISPLAY
 0000:1D9F       MOVE
 0000:1DB6       WAIT_UPI
 0000:1DC5       UPDATE
 0000:1DDB       READ_CMOS
 0000:1DE9       WRITE_CMOS
 0000:1DF7       CHK_CMOS_GOOD
 0000:1E00       SHUT
 0000:1E30       TVIDEO
 0000:1E77       START_CLOCK
 0000:1E8A       CONVERT
 0000:1EC3       READKEY
 0000:1F61       CCHECK
 0000:1F84       READ_SWITCH
 0000:1FAD       END_INTERRUPT
 0000:1FB9       CONVT_BIN_DEC
 0000:201C       FIXED_WAIT
 0000:20C9       FLOPPY_IO
 0000:20C9       AA_INT40
 0000:24B1       RECAL_OPN
 0000:25BB       FLOPPY_INTR
 0000:2870       DETRM_DRV_TYPE
 0000:2B2A       DISK_PARM_TBL
 0000:2B8A       WD_SETUP
 0000:2D1E       GTA_ERR
 0000:2D21       WD_DRV
 0000:2FC4       WD_INTR
 0000:328D       KEY
 0000:3319       KEYBOARD
 0000:373E       PRINT
 0000:37CD       SERIAL_IO
 0000:38DD       VIDEO
 0000:392C       V2
 0000:3935       SET_VIDEO_MODE
 0000:3A14       SET_CURSOR_TYPE
 0000:3A1F       SET_CURSOR_POSN
 0000:3A35       RD_CURSOR_POSN
 0000:3A44       RD_LPEN_POSN
 0000:3AD5       SEL_DISP_PAGE
 0000:3AF4       SCROLL_SCR_UP
 0000:3B8D       SCROLL_SCR_DWN
 0000:3BE3       RD_ATR_CHAR
 0000:3C8D       WR_CHAR
 0000:3C91       WR_ATR_CHAR
 0000:3D50       SET_COLOR_PLT
 0000:3D79       WR_DOT
 0000:3D9D       RD_DOT
 0000:3DA8       WR_TELETYPE
 0000:3E1B       RD_VIDEO_STATE
 0000:3FEB       STRING
 0000:40A4       V0
 0000:4138       SCREEN_PRINT
 0000:42B8       INTR_15
 0000:450A       SHUTDOWN_9
 0000:4544       GATE_A20
 0000:4740       END_OF_INT15
 0000:4A3E       CONFIG_SETUP
 0000:4BB5       OTHER_KEY
 0000:51A0       INPUT_COPROC
 0000:533C       END_SETUP
 0000:6000       COPYRIGHT
 0000:603D       VER_MSG
 0000:605B       BEGIN
 0000:605E       SIGN_ON
 0000:62C3       NMI_INT
 0000:6401       WD_CONFIG_TBL
 0000:66F2       BOOT1
 0000:66F5       CONFIG_TABLE
 0000:6739       SERIAL_IO1
 0000:682E       KEY1
 0000:6987       KEYBOARD1
 0000:6990       KEY_TABLE_1
 0000:699D       KEY_TABLE_2
 0000:69F6       KEY_TABLE_3
 0000:6A4F       KEY_TABLE_4
 0000:6AA8       KEY_TABLE_5
 0000:6B01       KEY_TABLE_6
 0000:6B5A       KEY_TABLE_7
 0000:6C59       WD_DRV1
 0000:6F57       FLOPPY_INTR1
 0000:6FC7       FLOPPY_PARMS
 0000:6FD2       PRINT1
 0000:7065       VIDEO_START
 0000:70A4       VIDEO_PARM_TBL
 0000:7841       RAM_SIZE
 0000:784D       CONFIG
 0000:7859       INTR_15_1
 0000:7A6E       CHAR_GEN_TABLE
 0000:7E6E       CLOCK1
 0000:7EA5       TIME1
 0000:7FF0       PWR_ON_RESET
 2000:0002  Abs  CURRENT_FIELD
 2000:0003  Abs  IN_BUFF_PTR
 2000:0004  Abs  IN_BUFF
 2000:0014  Abs  FLOPPY
 2000:0018  Abs  EQUIP
 B800:0000  Abs  DISP_BFR_W
 B800:0000  Abs  DISP_BFR_B
